target datalayout = "e-m:e-p270:32:32-p271:32:32-p272:64:64-i64:64-i128:128-f80:128-n8:16:32:64-S128"
target triple = "x86_64-pc-linux-gnu"

%struct._object = type { %union.anon, ptr }
%union.anon = type { i64 }
%struct.Py_complex = type { double, double }
%struct.PyComplexObject = type { %struct._object, %struct.Py_complex }

@PyExc_OverflowError = external global ptr, align 8
@.str.12 = private unnamed_addr constant [25 x i8] c"absolute value too large\00", align 1

; Function Attrs: nounwind uwtable
define dso_local double @_Py_c_abs(double %0, double %1) #0 {
  %3 = alloca double, align 8
  %4 = alloca %struct.Py_complex, align 8
  %5 = alloca double, align 8
  %6 = alloca i32, align 4
  %7 = getelementptr inbounds nuw { double, double }, ptr %4, i32 0, i32 0
  store double %0, ptr %7, align 8
  %8 = getelementptr inbounds nuw { double, double }, ptr %4, i32 0, i32 1
  store double %1, ptr %8, align 8
  call void @llvm.lifetime.start.p0(i64 8, ptr %5) #9
  %9 = getelementptr inbounds nuw %struct.Py_complex, ptr %4, i32 0, i32 0
  %10 = load double, ptr %9, align 8, !tbaa !4
  %11 = call i1 @llvm.is.fpclass.f64(double %10, i32 504)
  br i1 %11, label %12, label %16

12:                                               ; preds = %2
  %13 = getelementptr inbounds nuw %struct.Py_complex, ptr %4, i32 0, i32 1
  %14 = load double, ptr %13, align 8, !tbaa !9
  %15 = call i1 @llvm.is.fpclass.f64(double %14, i32 504)
  br i1 %15, label %49, label %16

16:                                               ; preds = %12, %2
  %17 = getelementptr inbounds nuw %struct.Py_complex, ptr %4, i32 0, i32 0
  %18 = load double, ptr %17, align 8, !tbaa !4
  %19 = call double @llvm.fabs.f64(double %18) #10
  %20 = fcmp oeq double %19, 0x7FF0000000000000
  %21 = bitcast double %18 to i64
  %22 = icmp slt i64 %21, 0
  %23 = select i1 %22, i32 -1, i32 1
  %24 = select i1 %20, i32 %23, i32 0
  %25 = icmp ne i32 %24, 0
  br i1 %25, label %26, label %32

26:                                               ; preds = %16
  %27 = getelementptr inbounds nuw %struct.Py_complex, ptr %4, i32 0, i32 0
  %28 = load double, ptr %27, align 8, !tbaa !4
  %29 = call double @llvm.fabs.f64(double %28)
  store double %29, ptr %5, align 8, !tbaa !10
  %30 = call ptr @__errno_location() #11
  store i32 0, ptr %30, align 4, !tbaa !12
  %31 = load double, ptr %5, align 8, !tbaa !10
  store double %31, ptr %3, align 8
  store i32 1, ptr %6, align 4
  br label %63

32:                                               ; preds = %16
  %33 = getelementptr inbounds nuw %struct.Py_complex, ptr %4, i32 0, i32 1
  %34 = load double, ptr %33, align 8, !tbaa !9
  %35 = call double @llvm.fabs.f64(double %34) #10
  %36 = fcmp oeq double %35, 0x7FF0000000000000
  %37 = bitcast double %34 to i64
  %38 = icmp slt i64 %37, 0
  %39 = select i1 %38, i32 -1, i32 1
  %40 = select i1 %36, i32 %39, i32 0
  %41 = icmp ne i32 %40, 0
  br i1 %41, label %42, label %48

42:                                               ; preds = %32
  %43 = getelementptr inbounds nuw %struct.Py_complex, ptr %4, i32 0, i32 1
  %44 = load double, ptr %43, align 8, !tbaa !9
  %45 = call double @llvm.fabs.f64(double %44)
  store double %45, ptr %5, align 8, !tbaa !10
  %46 = call ptr @__errno_location() #11
  store i32 0, ptr %46, align 4, !tbaa !12
  %47 = load double, ptr %5, align 8, !tbaa !10
  store double %47, ptr %3, align 8
  store i32 1, ptr %6, align 4
  br label %63

48:                                               ; preds = %32
  store double 0x7FF8000000000000, ptr %3, align 8
  store i32 1, ptr %6, align 4
  br label %63

49:                                               ; preds = %12
  %50 = getelementptr inbounds nuw %struct.Py_complex, ptr %4, i32 0, i32 0
  %51 = load double, ptr %50, align 8, !tbaa !4
  %52 = getelementptr inbounds nuw %struct.Py_complex, ptr %4, i32 0, i32 1
  %53 = load double, ptr %52, align 8, !tbaa !9
  %54 = call double @hypot(double noundef %51, double noundef %53) #9, !tbaa !12
  store double %54, ptr %5, align 8, !tbaa !10
  %55 = load double, ptr %5, align 8, !tbaa !10
  %56 = call i1 @llvm.is.fpclass.f64(double %55, i32 504)
  br i1 %56, label %59, label %57

57:                                               ; preds = %49
  %58 = call ptr @__errno_location() #11
  store i32 34, ptr %58, align 4, !tbaa !12
  br label %61

59:                                               ; preds = %49
  %60 = call ptr @__errno_location() #11
  store i32 0, ptr %60, align 4, !tbaa !12
  br label %61

61:                                               ; preds = %59, %57
  %62 = load double, ptr %5, align 8, !tbaa !10
  store double %62, ptr %3, align 8
  store i32 1, ptr %6, align 4
  br label %63

63:                                               ; preds = %61, %48, %42, %26
  call void @llvm.lifetime.end.p0(i64 8, ptr %5) #9
  %64 = load double, ptr %3, align 8
  ret double %64
}

; Function Attrs: nounwind uwtable
define internal ptr @complex_abs(ptr noundef %0) #0 {
  %2 = alloca ptr, align 8
  %3 = alloca ptr, align 8
  %4 = alloca ptr, align 8
  %5 = alloca double, align 8
  %6 = alloca i32, align 4
  store ptr %0, ptr %3, align 8, !tbaa !16
  call void @llvm.lifetime.start.p0(i64 8, ptr %4) #9
  %7 = load ptr, ptr %3, align 8, !tbaa !16
  store ptr %7, ptr %4, align 8, !tbaa !14
  call void @llvm.lifetime.start.p0(i64 8, ptr %5) #9
  %8 = load ptr, ptr %4, align 8, !tbaa !14
  %9 = getelementptr inbounds nuw %struct.PyComplexObject, ptr %8, i32 0, i32 1
  %10 = getelementptr inbounds nuw { double, double }, ptr %9, i32 0, i32 0
  %11 = load double, ptr %10, align 8
  %12 = getelementptr inbounds nuw { double, double }, ptr %9, i32 0, i32 1
  %13 = load double, ptr %12, align 8
  %14 = call double @_Py_c_abs(double %11, double %13)
  store double %14, ptr %5, align 8, !tbaa !10
  %15 = call ptr @__errno_location() #11
  %16 = load i32, ptr %15, align 4, !tbaa !12
  %17 = icmp eq i32 %16, 34
  br i1 %17, label %18, label %20

18:                                               ; preds = %1
  %19 = load ptr, ptr @PyExc_OverflowError, align 8, !tbaa !16
  call void @PyErr_SetString(ptr noundef %19, ptr noundef @.str.12)
  store ptr null, ptr %2, align 8
  store i32 1, ptr %6, align 4
  br label %23

20:                                               ; preds = %1
  %21 = load double, ptr %5, align 8, !tbaa !10
  %22 = call ptr @PyFloat_FromDouble(double noundef %21)
  store ptr %22, ptr %2, align 8
  store i32 1, ptr %6, align 4
  br label %23

23:                                               ; preds = %20, %18
  call void @llvm.lifetime.end.p0(i64 8, ptr %5) #9
  call void @llvm.lifetime.end.p0(i64 8, ptr %4) #9
  %24 = load ptr, ptr %2, align 8
  ret ptr %24
}