; Function Attrs: nounwind uwtable
define internal ptr @complex_abs(ptr noundef readonly captures(none) %0) #9 {
  %2 = getelementptr inbounds nuw i8, ptr %0, i64 16
  %3 = load double, ptr %2, align 8
  %4 = getelementptr inbounds nuw i8, ptr %0, i64 24
  %5 = load double, ptr %4, align 8
  %6 = tail call double @llvm.fabs.f64(double %3)
  %7 = fcmp ueq double %6, 0x7FF0000000000000
  %8 = tail call double @llvm.fabs.f64(double %5)
  %9 = fcmp ueq double %8, 0x7FF0000000000000
  %or.cond.i = select i1 %7, i1 true, i1 %9
  br i1 %or.cond.i, label %10, label %17

10:                                               ; preds = %1
  %11 = fcmp oeq double %6, 0x7FF0000000000000
  br i1 %11, label %12, label %14

12:                                               ; preds = %10
  %13 = tail call ptr @__errno_location() #15
  br label %_Py_c_abs.exit.thread.sink.split

14:                                               ; preds = %10
  %15 = fcmp oeq double %8, 0x7FF0000000000000
  %16 = tail call ptr @__errno_location() #15
  br i1 %15, label %_Py_c_abs.exit.thread.sink.split, label %_Py_c_abs.exit

17:                                               ; preds = %1
  %18 = tail call double @hypot(double noundef %3, double noundef %5) #16, !tbaa !4
  %19 = tail call double @llvm.fabs.f64(double %18)
  %20 = fcmp ueq double %19, 0x7FF0000000000000
  %21 = tail call ptr @__errno_location() #15
  br i1 %20, label %_Py_c_abs.exit.thread7, label %_Py_c_abs.exit.thread.sink.split

_Py_c_abs.exit.thread7:                           ; preds = %17
  store i32 34, ptr %21, align 4, !tbaa !4
  br label %23

_Py_c_abs.exit:                                   ; preds = %14
  %.pr = load i32, ptr %16, align 4, !tbaa !4
  %22 = icmp eq i32 %.pr, 34
  br i1 %22, label %23, label %_Py_c_abs.exit.thread

23:                                               ; preds = %_Py_c_abs.exit.thread7, %_Py_c_abs.exit
  %24 = load ptr, ptr @PyExc_OverflowError, align 8, !tbaa !32
  tail call void @PyErr_SetString(ptr noundef %24, ptr noundef nonnull @.str.12) #16
  br label %26

_Py_c_abs.exit.thread.sink.split:                 ; preds = %17, %14, %12
  %.sink = phi ptr [ %13, %12 ], [ %16, %14 ], [ %21, %17 ]
  %.0.i6.ph = phi double [ 0x7FF0000000000000, %12 ], [ 0x7FF0000000000000, %14 ], [ %18, %17 ]
  store i32 0, ptr %.sink, align 4, !tbaa !4
  br label %_Py_c_abs.exit.thread

_Py_c_abs.exit.thread:                            ; preds = %_Py_c_abs.exit.thread.sink.split, %_Py_c_abs.exit
  %.0.i6 = phi double [ 0x7FF8000000000000, %_Py_c_abs.exit ], [ %.0.i6.ph, %_Py_c_abs.exit.thread.sink.split ]
  %25 = tail call ptr @PyFloat_FromDouble(double noundef %.0.i6) #16
  br label %26

26:                                               ; preds = %_Py_c_abs.exit.thread, %23
  %.0 = phi ptr [ null, %23 ], [ %25, %_Py_c_abs.exit.thread ]
  ret ptr %.0
}